; Function Attrs: mustprogress nounwind uwtable
define hidden void @_ZN26CompilationMemoryStatistic20on_start_compilationEPK12DirectiveSet(ptr noundef nonnull %0) local_unnamed_addr #3 align 2 {
  %2 = tail call noundef i64 @_ZNK12DirectiveSet9mem_limitEv(ptr noundef nonnull align 8 dereferenceable(280) %0) #14
  %3 = tail call align 8 ptr @llvm.threadlocal.address.p0(ptr align 8 @_ZN6Thread12_thr_currentE)
  %4 = load ptr, ptr %3, align 8
  %5 = getelementptr inbounds i8, ptr %4, i64 1872
  %6 = load ptr, ptr %5, align 8
  %7 = load i64, ptr %6, align 8
  %8 = getelementptr inbounds i8, ptr %6, i64 8
  store i64 %7, ptr %8, align 8
  %9 = getelementptr inbounds i8, ptr %6, i64 16
  store i64 %7, ptr %9, align 8
  %10 = getelementptr inbounds i8, ptr %6, i64 40
  store i64 %2, ptr %10, align 8
  %11 = getelementptr inbounds i8, ptr %6, i64 48
  store i8 0, ptr %11, align 8
  ret void
}